target datalayout = "e-m:e-p270:32:32-p271:32:32-p272:64:64-i64:64-i128:128-f80:128-n8:16:32:64-S128"
target triple = "x86_64-pc-linux-gnu"

%struct.dictStats = type { i32, i64, i64, i64, i64, i64, ptr }

; Function Attrs: nounwind uwtable
define dso_local void @dictCombineStats(ptr noundef %0, ptr noundef %1) #0 {
  %3 = alloca ptr, align 8
  %4 = alloca ptr, align 8
  %5 = alloca i32, align 4
  store ptr %0, ptr %3, align 8, !tbaa !111
  store ptr %1, ptr %4, align 8, !tbaa !111
  %6 = load ptr, ptr %3, align 8, !tbaa !111
  %7 = getelementptr inbounds nuw %struct.dictStats, ptr %6, i32 0, i32 1
  %8 = load i64, ptr %7, align 8, !tbaa !115
  %9 = load ptr, ptr %4, align 8, !tbaa !111
  %10 = getelementptr inbounds nuw %struct.dictStats, ptr %9, i32 0, i32 1
  %11 = load i64, ptr %10, align 8, !tbaa !115
  %12 = add i64 %11, %8
  store i64 %12, ptr %10, align 8, !tbaa !115
  %13 = load ptr, ptr %3, align 8, !tbaa !111
  %14 = getelementptr inbounds nuw %struct.dictStats, ptr %13, i32 0, i32 2
  %15 = load i64, ptr %14, align 8, !tbaa !116
  %16 = load ptr, ptr %4, align 8, !tbaa !111
  %17 = getelementptr inbounds nuw %struct.dictStats, ptr %16, i32 0, i32 2
  %18 = load i64, ptr %17, align 8, !tbaa !116
  %19 = icmp ugt i64 %15, %18
  br i1 %19, label %20, label %24

20:                                               ; preds = %2
  %21 = load ptr, ptr %3, align 8, !tbaa !111
  %22 = getelementptr inbounds nuw %struct.dictStats, ptr %21, i32 0, i32 2
  %23 = load i64, ptr %22, align 8, !tbaa !116
  br label %28

24:                                               ; preds = %2
  %25 = load ptr, ptr %4, align 8, !tbaa !111
  %26 = getelementptr inbounds nuw %struct.dictStats, ptr %25, i32 0, i32 2
  %27 = load i64, ptr %26, align 8, !tbaa !116
  br label %28

28:                                               ; preds = %24, %20
  %29 = phi i64 [ %23, %20 ], [ %27, %24 ]
  %30 = load ptr, ptr %4, align 8, !tbaa !111
  %31 = getelementptr inbounds nuw %struct.dictStats, ptr %30, i32 0, i32 2
  store i64 %29, ptr %31, align 8, !tbaa !116
  %32 = load ptr, ptr %3, align 8, !tbaa !111
  %33 = getelementptr inbounds nuw %struct.dictStats, ptr %32, i32 0, i32 3
  %34 = load i64, ptr %33, align 8, !tbaa !117
  %35 = load ptr, ptr %4, align 8, !tbaa !111
  %36 = getelementptr inbounds nuw %struct.dictStats, ptr %35, i32 0, i32 3
  %37 = load i64, ptr %36, align 8, !tbaa !117
  %38 = add i64 %37, %34
  store i64 %38, ptr %36, align 8, !tbaa !117
  %39 = load ptr, ptr %3, align 8, !tbaa !111
  %40 = getelementptr inbounds nuw %struct.dictStats, ptr %39, i32 0, i32 4
  %41 = load i64, ptr %40, align 8, !tbaa !118
  %42 = load ptr, ptr %4, align 8, !tbaa !111
  %43 = getelementptr inbounds nuw %struct.dictStats, ptr %42, i32 0, i32 4
  %44 = load i64, ptr %43, align 8, !tbaa !118
  %45 = add i64 %44, %41
  store i64 %45, ptr %43, align 8, !tbaa !118
  %46 = load ptr, ptr %3, align 8, !tbaa !111
  %47 = getelementptr inbounds nuw %struct.dictStats, ptr %46, i32 0, i32 5
  %48 = load i64, ptr %47, align 8, !tbaa !119
  %49 = load ptr, ptr %4, align 8, !tbaa !111
  %50 = getelementptr inbounds nuw %struct.dictStats, ptr %49, i32 0, i32 5
  %51 = load i64, ptr %50, align 8, !tbaa !119
  %52 = add i64 %51, %48
  store i64 %52, ptr %50, align 8, !tbaa !119
  call void @llvm.lifetime.start.p0(i64 4, ptr %5) #14
  store i32 0, ptr %5, align 4, !tbaa !29
  br label %53

53:                                               ; preds = %73, %28
  %54 = load i32, ptr %5, align 4, !tbaa !29
  %55 = icmp slt i32 %54, 50
  br i1 %55, label %57, label %56

56:                                               ; preds = %53
  call void @llvm.lifetime.end.p0(i64 4, ptr %5) #14
  br label %76

57:                                               ; preds = %53
  %58 = load ptr, ptr %3, align 8, !tbaa !111
  %59 = getelementptr inbounds nuw %struct.dictStats, ptr %58, i32 0, i32 6
  %60 = load ptr, ptr %59, align 8, !tbaa !113
  %61 = load i32, ptr %5, align 4, !tbaa !29
  %62 = sext i32 %61 to i64
  %63 = getelementptr inbounds i64, ptr %60, i64 %62
  %64 = load i64, ptr %63, align 8, !tbaa !11
  %65 = load ptr, ptr %4, align 8, !tbaa !111
  %66 = getelementptr inbounds nuw %struct.dictStats, ptr %65, i32 0, i32 6
  %67 = load ptr, ptr %66, align 8, !tbaa !113
  %68 = load i32, ptr %5, align 4, !tbaa !29
  %69 = sext i32 %68 to i64
  %70 = getelementptr inbounds i64, ptr %67, i64 %69
  %71 = load i64, ptr %70, align 8, !tbaa !11
  %72 = add i64 %71, %64
  store i64 %72, ptr %70, align 8, !tbaa !11
  br label %73

73:                                               ; preds = %57
  %74 = load i32, ptr %5, align 4, !tbaa !29
  %75 = add nsw i32 %74, 1
  store i32 %75, ptr %5, align 4, !tbaa !29
  br label %53, !llvm.loop !120

76:                                               ; preds = %56
  ret void
}