; Function Attrs: nofree norecurse nosync nounwind memory(readwrite, inaccessiblemem: none) uwtable
define dso_local void @dictCombineStats(ptr noundef readonly captures(none) %0, ptr noundef captures(none) %1) local_unnamed_addr #17 {
  %3 = getelementptr inbounds nuw i8, ptr %0, i64 8
  %4 = load i64, ptr %3, align 8, !tbaa !100
  %5 = getelementptr inbounds nuw i8, ptr %1, i64 8
  %6 = load i64, ptr %5, align 8, !tbaa !100
  %7 = add i64 %6, %4
  store i64 %7, ptr %5, align 8, !tbaa !100
  %8 = getelementptr inbounds nuw i8, ptr %0, i64 16
  %9 = load i64, ptr %8, align 8, !tbaa !101
  %10 = getelementptr inbounds nuw i8, ptr %1, i64 16
  %11 = load i64, ptr %10, align 8, !tbaa !101
  %. = tail call i64 @llvm.umax.i64(i64 %9, i64 %11)
  store i64 %., ptr %10, align 8, !tbaa !101
  %12 = getelementptr inbounds nuw i8, ptr %0, i64 24
  %13 = load i64, ptr %12, align 8, !tbaa !102
  %14 = getelementptr inbounds nuw i8, ptr %1, i64 24
  %15 = load i64, ptr %14, align 8, !tbaa !102
  %16 = add i64 %15, %13
  store i64 %16, ptr %14, align 8, !tbaa !102
  %17 = getelementptr inbounds nuw i8, ptr %0, i64 32
  %18 = load i64, ptr %17, align 8, !tbaa !103
  %19 = getelementptr inbounds nuw i8, ptr %1, i64 32
  %20 = load i64, ptr %19, align 8, !tbaa !103
  %21 = add i64 %20, %18
  store i64 %21, ptr %19, align 8, !tbaa !103
  %22 = getelementptr inbounds nuw i8, ptr %0, i64 40
  %23 = load i64, ptr %22, align 8, !tbaa !104
  %24 = getelementptr inbounds nuw i8, ptr %1, i64 40
  %25 = load i64, ptr %24, align 8, !tbaa !104
  %26 = add i64 %25, %23
  store i64 %26, ptr %24, align 8, !tbaa !104
  %27 = getelementptr inbounds nuw i8, ptr %0, i64 48
  %28 = load ptr, ptr %27, align 8, !tbaa !97
  %29 = getelementptr inbounds nuw i8, ptr %1, i64 48
  %30 = load ptr, ptr %29, align 8, !tbaa !97
  br label %32

31:                                               ; preds = %32
  ret void

32:                                               ; preds = %2, %32
  %indvars.iv = phi i64 [ 0, %2 ], [ %indvars.iv.next, %32 ]
  %33 = getelementptr inbounds nuw i64, ptr %28, i64 %indvars.iv
  %34 = load i64, ptr %33, align 8, !tbaa !14
  %35 = getelementptr inbounds nuw i64, ptr %30, i64 %indvars.iv
  %36 = load i64, ptr %35, align 8, !tbaa !14
  %37 = add i64 %36, %34
  store i64 %37, ptr %35, align 8, !tbaa !14
  %indvars.iv.next = add nuw nsw i64 %indvars.iv, 1
  %exitcond.not = icmp eq i64 %indvars.iv.next, 50
  br i1 %exitcond.not, label %31, label %32, !llvm.loop !105
}